target datalayout = "e-m:e-p270:32:32-p271:32:32-p272:64:64-i64:64-i128:128-f80:128-n8:16:32:64-S128"
target triple = "x86_64-unknown-linux-gnu"

%struct.mz_stream_s = type { ptr, i32, i64, ptr, i32, i64, ptr, ptr, ptr, ptr, ptr, i32, i64, i64 }

; Function Attrs: nounwind uwtable
define hidden i32 @mz_inflateEnd(ptr noundef %pStream) #0 {
entry:
  %retval = alloca i32, align 4
  %pStream.addr = alloca ptr, align 8
  store ptr %pStream, ptr %pStream.addr, align 8
  %0 = load ptr, ptr %pStream.addr, align 8
  %tobool = icmp ne ptr %0, null
  br i1 %tobool, label %if.end, label %if.then

if.then:                                          ; preds = %entry
  store i32 -2, ptr %retval, align 4
  br label %return

if.end:                                           ; preds = %entry
  %1 = load ptr, ptr %pStream.addr, align 8
  %state = getelementptr inbounds %struct.mz_stream_s, ptr %1, i32 0, i32 7
  %2 = load ptr, ptr %state, align 8
  %tobool1 = icmp ne ptr %2, null
  br i1 %tobool1, label %if.then2, label %if.end5

if.then2:                                         ; preds = %if.end
  %3 = load ptr, ptr %pStream.addr, align 8
  %zfree = getelementptr inbounds %struct.mz_stream_s, ptr %3, i32 0, i32 9
  %4 = load ptr, ptr %zfree, align 8
  %5 = load ptr, ptr %pStream.addr, align 8
  %opaque = getelementptr inbounds %struct.mz_stream_s, ptr %5, i32 0, i32 10
  %6 = load ptr, ptr %opaque, align 8
  %7 = load ptr, ptr %pStream.addr, align 8
  %state3 = getelementptr inbounds %struct.mz_stream_s, ptr %7, i32 0, i32 7
  %8 = load ptr, ptr %state3, align 8
  call void %4(ptr noundef %6, ptr noundef %8)
  %9 = load ptr, ptr %pStream.addr, align 8
  %state4 = getelementptr inbounds %struct.mz_stream_s, ptr %9, i32 0, i32 7
  store ptr null, ptr %state4, align 8
  br label %if.end5

if.end5:                                          ; preds = %if.then2, %if.end
  store i32 0, ptr %retval, align 4
  br label %return

return:                                           ; preds = %if.end5, %if.then
  %10 = load i32, ptr %retval, align 4
  ret i32 %10
}