; Function Attrs: nounwind uwtable
define hidden range(i32 -2, 1) i32 @mz_inflateEnd(ptr noundef %pStream) local_unnamed_addr #4 {
entry:
  %tobool.not = icmp eq ptr %pStream, null
  br i1 %tobool.not, label %return, label %if.end

if.end:                                           ; preds = %entry
  %state = getelementptr inbounds nuw i8, ptr %pStream, i64 56
  %0 = load ptr, ptr %state, align 8
  %tobool1.not = icmp eq ptr %0, null
  br i1 %tobool1.not, label %return, label %if.then2

if.then2:                                         ; preds = %if.end
  %zfree = getelementptr inbounds nuw i8, ptr %pStream, i64 72
  %1 = load ptr, ptr %zfree, align 8
  %opaque = getelementptr inbounds nuw i8, ptr %pStream, i64 80
  %2 = load ptr, ptr %opaque, align 8
  tail call void %1(ptr noundef %2, ptr noundef nonnull %0) #30
  store ptr null, ptr %state, align 8
  br label %return

return:                                           ; preds = %if.end, %if.then2, %entry
  %retval.0 = phi i32 [ -2, %entry ], [ 0, %if.then2 ], [ 0, %if.end ]
  ret i32 %retval.0
}